target datalayout = "e-m:e-p270:32:32-p271:32:32-p272:64:64-i64:64-i128:128-f80:128-n8:16:32:64-S128"
target triple = "x86_64-pc-linux-gnu"

@fn_handler = internal global [20 x ptr] [ptr null, ptr @fn_enter, ptr null, ptr null, ptr null, ptr null, ptr null, ptr @fn_caps_toggle, ptr @fn_num, ptr null, ptr null, ptr null, ptr null, ptr @fn_caps_on, ptr @fn_compose, ptr null, ptr null, ptr null, ptr null, ptr @fn_num], align 16

; Function Attrs: nounwind uwtable
define internal void @k_spec(ptr noundef %0, i8 noundef zeroext %1, i8 noundef signext %2) #0 {
  %4 = alloca ptr, align 8
  %5 = alloca i8, align 1
  %6 = alloca i8, align 1
  store ptr %0, ptr %4, align 8
  store i8 %1, ptr %5, align 1
  store i8 %2, ptr %6, align 1
  %7 = load i8, ptr %6, align 1
  %8 = icmp ne i8 %7, 0
  br i1 %8, label %9, label %10

9:                                                ; preds = %3
  br label %27

10:                                               ; preds = %3
  %11 = load i8, ptr %5, align 1
  %12 = zext i8 %11 to i64
  %13 = icmp uge i64 %12, 20
  br i1 %13, label %14, label %15

14:                                               ; preds = %10
  br label %27

15:                                               ; preds = %10
  %16 = load i8, ptr %5, align 1
  %17 = zext i8 %16 to i64
  %18 = getelementptr inbounds nuw [20 x ptr], ptr @fn_handler, i64 0, i64 %17
  %19 = load ptr, ptr %18, align 8
  %20 = icmp ne ptr %19, null
  br i1 %20, label %21, label %27

21:                                               ; preds = %15
  %22 = load i8, ptr %5, align 1
  %23 = zext i8 %22 to i64
  %24 = getelementptr inbounds nuw [20 x ptr], ptr @fn_handler, i64 0, i64 %23
  %25 = load ptr, ptr %24, align 8
  %26 = load ptr, ptr %4, align 8
  call void %25(ptr noundef %26)
  br label %27

27:                                               ; preds = %9, %14, %21, %15
  ret void
}