; Function Attrs: nounwind uwtable
define internal void @k_spec(ptr noundef %0, i8 noundef zeroext %1, i8 noundef signext %2) #0 {
  %4 = icmp ne i8 %2, 0
  %5 = icmp ugt i8 %1, 19
  %or.cond = or i1 %5, %4
  br i1 %or.cond, label %13, label %6

6:                                                ; preds = %3
  %7 = zext nneg i8 %1 to i64
  %8 = shl nuw nsw i64 1, %7
  %9 = and i64 %8, 499325
  %.not.not = icmp eq i64 %9, 0
  br i1 %.not.not, label %10, label %13

10:                                               ; preds = %6
  %11 = getelementptr inbounds nuw [20 x ptr], ptr @fn_handler, i64 0, i64 %7
  %12 = load ptr, ptr %11, align 8
  tail call void %12(ptr noundef %0) #12
  br label %13

13:                                               ; preds = %3, %10, %6
  ret void
}